; Function Attrs: nounwind uwtable
define void @Gia_ManFromAigChoices_rec(ptr noundef %0, ptr noundef %1, ptr noundef %2) local_unnamed_addr #0 {
  %4 = icmp eq ptr %2, null
  br i1 %4, label %Aig_ObjEquiv.exit31.thread, label %5

5:                                                ; preds = %3
  %6 = getelementptr inbounds nuw i8, ptr %2, i64 40
  %7 = load i32, ptr %6, align 8, !tbaa !3
  %.not = icmp eq i32 %7, 0
  br i1 %.not, label %8, label %Aig_ObjEquiv.exit31.thread

8:                                                ; preds = %5
  %9 = getelementptr i8, ptr %2, i64 8
  %.val = load ptr, ptr %9, align 8, !tbaa !6
  %10 = ptrtoint ptr %.val to i64
  %11 = and i64 %10, -2
  %12 = inttoptr i64 %11 to ptr
  tail call void @Gia_ManFromAigChoices_rec(ptr noundef %0, ptr noundef %1, ptr noundef %12)
  %13 = getelementptr i8, ptr %2, i64 16
  %.val24 = load ptr, ptr %13, align 8, !tbaa !11
  %14 = ptrtoint ptr %.val24 to i64
  %15 = and i64 %14, -2
  %16 = inttoptr i64 %15 to ptr
  tail call void @Gia_ManFromAigChoices_rec(ptr noundef %0, ptr noundef %1, ptr noundef %16)
  %17 = getelementptr i8, ptr %1, i64 248
  %.val29 = load ptr, ptr %17, align 8, !tbaa !12
  %.not.i = icmp eq ptr %.val29, null
  br i1 %.not.i, label %Aig_ObjEquiv.exit, label %18

18:                                               ; preds = %8
  %19 = getelementptr inbounds nuw i8, ptr %2, i64 36
  %20 = load i32, ptr %19, align 4, !tbaa !24
  %21 = sext i32 %20 to i64
  %22 = getelementptr inbounds ptr, ptr %.val29, i64 %21
  %23 = load ptr, ptr %22, align 8, !tbaa !25
  br label %Aig_ObjEquiv.exit

Aig_ObjEquiv.exit:                                ; preds = %8, %18
  %24 = phi ptr [ %23, %18 ], [ null, %8 ]
  tail call void @Gia_ManFromAigChoices_rec(ptr noundef %0, ptr noundef nonnull %1, ptr noundef %24)
  %.val25 = load ptr, ptr %9, align 8, !tbaa !6
  %25 = ptrtoint ptr %.val25 to i64
  %26 = and i64 %25, -2
  %27 = inttoptr i64 %26 to ptr
  %28 = getelementptr inbounds nuw i8, ptr %27, i64 40
  %29 = load i32, ptr %28, align 8, !tbaa !3
  %30 = trunc i64 %25 to i32
  %31 = and i32 %30, 1
  %32 = xor i32 %31, %29
  %.val26 = load ptr, ptr %13, align 8, !tbaa !11
  %33 = ptrtoint ptr %.val26 to i64
  %34 = and i64 %33, -2
  %35 = inttoptr i64 %34 to ptr
  %36 = getelementptr inbounds nuw i8, ptr %35, i64 40
  %37 = load i32, ptr %36, align 8, !tbaa !3
  %38 = trunc i64 %33 to i32
  %39 = and i32 %38, 1
  %40 = xor i32 %39, %37
  %41 = tail call fastcc i32 @Gia_ManAppendAnd(ptr noundef %0, i32 noundef %32, i32 noundef %40)
  store i32 %41, ptr %6, align 8, !tbaa !3
  %.val28 = load ptr, ptr %17, align 8, !tbaa !12
  %.not.i30 = icmp eq ptr %.val28, null
  br i1 %.not.i30, label %Aig_ObjEquiv.exit31.thread, label %Aig_ObjEquiv.exit31

Aig_ObjEquiv.exit31:                              ; preds = %Aig_ObjEquiv.exit
  %42 = getelementptr inbounds nuw i8, ptr %2, i64 36
  %43 = load i32, ptr %42, align 4, !tbaa !24
  %44 = sext i32 %43 to i64
  %45 = getelementptr inbounds ptr, ptr %.val28, i64 %44
  %46 = load ptr, ptr %45, align 8, !tbaa !25
  %.not23 = icmp eq ptr %46, null
  br i1 %.not23, label %Aig_ObjEquiv.exit31.thread, label %Aig_ObjEquiv.exit33

Aig_ObjEquiv.exit33:                              ; preds = %Aig_ObjEquiv.exit31
  %47 = ashr i32 %41, 1
  %48 = getelementptr inbounds nuw i8, ptr %46, i64 40
  %49 = load i32, ptr %48, align 8, !tbaa !3
  %50 = ashr i32 %49, 1
  %51 = getelementptr inbounds nuw i8, ptr %0, i64 208
  %52 = load ptr, ptr %51, align 8, !tbaa !71
  %53 = sext i32 %47 to i64
  %54 = getelementptr inbounds i32, ptr %52, i64 %53
  store i32 %50, ptr %54, align 4, !tbaa !40
  br label %Aig_ObjEquiv.exit31.thread

Aig_ObjEquiv.exit31.thread:                       ; preds = %Aig_ObjEquiv.exit, %3, %5, %Aig_ObjEquiv.exit33, %Aig_ObjEquiv.exit31
  ret void
}